target datalayout = "e-m:e-p270:32:32-p271:32:32-p272:64:64-i64:64-i128:128-f80:128-n8:16:32:64-S128"
target triple = "x86_64-pc-linux-gnu"

; Function Attrs: nounwind sspstrong uwtable
define dso_local i32 @onigenc_unicode_is_code_ctype(i32 noundef %0, i32 noundef %1, ptr noundef %2) #0 {
  %4 = alloca i32, align 4
  %5 = alloca i32, align 4
  %6 = alloca i32, align 4
  %7 = alloca ptr, align 8
  store i32 %0, ptr %5, align 4, !tbaa !7
  store i32 %1, ptr %6, align 4, !tbaa !7
  store ptr %2, ptr %7, align 8, !tbaa !11
  %8 = load i32, ptr %6, align 4, !tbaa !7
  %9 = icmp ule i32 %8, 14
  br i1 %9, label %10, label %24

10:                                               ; preds = %3
  %11 = load i32, ptr %5, align 4, !tbaa !7
  %12 = icmp ult i32 %11, 256
  br i1 %12, label %13, label %24

13:                                               ; preds = %10
  %14 = load i32, ptr %5, align 4, !tbaa !7
  %15 = zext i32 %14 to i64
  %16 = getelementptr [256 x i16], ptr @EncUNICODE_ISO_8859_1_CtypeTable, i64 0, i64 %15
  %17 = load i16, ptr %16, align 2, !tbaa !14
  %18 = zext i16 %17 to i32
  %19 = load i32, ptr %6, align 4, !tbaa !7
  %20 = shl i32 1, %19
  %21 = and i32 %18, %20
  %22 = icmp ne i32 %21, 0
  %23 = zext i1 %22 to i32
  store i32 %23, ptr %4, align 4
  br label %35

24:                                               ; preds = %10, %3
  %25 = load i32, ptr %6, align 4, !tbaa !7
  %26 = icmp uge i32 %25, 645
  br i1 %26, label %27, label %28

27:                                               ; preds = %24
  store i32 -6, ptr %4, align 4
  br label %35

28:                                               ; preds = %24
  %29 = load i32, ptr %6, align 4, !tbaa !7
  %30 = zext i32 %29 to i64
  %31 = getelementptr [645 x ptr], ptr @CodeRanges, i64 0, i64 %30
  %32 = load ptr, ptr %31, align 8, !tbaa !16
  %33 = load i32, ptr %5, align 4, !tbaa !7
  %34 = call i32 @onig_is_in_code_range(ptr noundef %32, i32 noundef %33)
  store i32 %34, ptr %4, align 4
  br label %35

35:                                               ; preds = %28, %27, %13
  %36 = load i32, ptr %4, align 4
  ret i32 %36
}