; Function Attrs: nounwind sspstrong uwtable
define dso_local i32 @onigenc_unicode_is_code_ctype(i32 noundef %0, i32 noundef %1, ptr noundef readnone captures(none) %2) local_unnamed_addr #0 {
  %4 = icmp ult i32 %1, 15
  %5 = icmp ult i32 %0, 256
  %or.cond = and i1 %5, %4
  br i1 %or.cond, label %6, label %13

6:                                                ; preds = %3
  %7 = zext nneg i32 %0 to i64
  %8 = getelementptr [256 x i16], ptr @EncUNICODE_ISO_8859_1_CtypeTable, i64 0, i64 %7
  %9 = load i16, ptr %8, align 2, !tbaa !7
  %10 = zext i16 %9 to i32
  %11 = lshr i32 %10, %1
  %12 = and i32 %11, 1
  br label %20

13:                                               ; preds = %3
  %14 = icmp ugt i32 %1, 644
  br i1 %14, label %20, label %15

15:                                               ; preds = %13
  %16 = zext nneg i32 %1 to i64
  %17 = getelementptr [645 x ptr], ptr @CodeRanges, i64 0, i64 %16
  %18 = load ptr, ptr %17, align 8, !tbaa !11
  %19 = tail call i32 @onig_is_in_code_range(ptr noundef %18, i32 noundef %0) #7
  br label %20

20:                                               ; preds = %13, %15, %6
  %.0 = phi i32 [ %12, %6 ], [ %19, %15 ], [ -6, %13 ]
  ret i32 %.0
}